; ModuleID = '24/84.c'
source_filename = "24/84.c"
target datalayout = "e-m:e-p270:32:32-p271:32:32-p272:64:64-i64:64-f80:128-n8:16:32:64-S128"
target triple = "x86_64-pc-linux-gnu"

@.str = private unnamed_addr constant [3 x i8] c"%s\00", align 1

; Function Attrs: noinline nounwind uwtable
define dso_local signext i16 @IsAlpha(i8 signext %0) #0 {
  %2 = alloca i16, align 2
  %3 = alloca i8, align 1
  store i8 %0, i8* %3, align 1
  %4 = load i8, i8* %3, align 1
  %5 = sext i8 %4 to i32
  %6 = icmp sge i32 %5, 97
  br i1 %6, label %7, label %12

7:                                                ; preds = %1
  %8 = load i8, i8* %3, align 1
  %9 = sext i8 %8 to i32
  %10 = icmp sle i32 %9, 122
  br i1 %10, label %11, label %12

11:                                               ; preds = %7
  store i16 1, i16* %2, align 2
  br label %22

12:                                               ; preds = %7, %1
  %13 = load i8, i8* %3, align 1
  %14 = sext i8 %13 to i32
  %15 = icmp sge i32 %14, 65
  br i1 %15, label %16, label %21

16:                                               ; preds = %12
  %17 = load i8, i8* %3, align 1
  %18 = sext i8 %17 to i32
  %19 = icmp sle i32 %18, 90
  br i1 %19, label %20, label %21

20:                                               ; preds = %16
  store i16 1, i16* %2, align 2
  br label %22

21:                                               ; preds = %16, %12
  store i16 0, i16* %2, align 2
  br label %22

22:                                               ; preds = %21, %20, %11
  %23 = load i16, i16* %2, align 2
  ret i16 %23
}

; Function Attrs: noinline nounwind uwtable
define dso_local i32 @main() #0 {
  %1 = alloca i32, align 4
  %2 = alloca [500 x i8], align 16
  %3 = alloca [50 x [20 x i8]], align 16
  %4 = alloca i32, align 4
  %5 = alloca i32, align 4
  %6 = alloca i8*, align 8
  %7 = alloca i32, align 4
  %8 = alloca i32, align 4
  store i32 0, i32* %1, align 4
  store i32 0, i32* %4, align 4
  store i32 0, i32* %5, align 4
  %9 = getelementptr inbounds [500 x i8], [500 x i8]* %2, i64 0, i64 0
  store i8* %9, i8** %6, align 8
  store i32 0, i32* %7, align 4
  %10 = getelementptr inbounds [500 x i8], [500 x i8]* %2, i64 0, i64 0
  %11 = call i32 (i8*, ...) bitcast (i32 (...)* @gets to i32 (i8*, ...)*)(i8* %10)
  br label %12

12:                                               ; preds = %26, %0
  %13 = load i8*, i8** %6, align 8
  %14 = load i8, i8* %13, align 1
  %15 = icmp ne i8 %14, 0
  br i1 %15, label %16, label %42

16:                                               ; preds = %12
  br label %17

17:                                               ; preds = %23, %16
  %18 = load i8*, i8** %6, align 8
  %19 = load i8, i8* %18, align 1
  %20 = call signext i16 @IsAlpha(i8 signext %19)
  %21 = icmp ne i16 %20, 0
  %22 = xor i1 %21, true
  br i1 %22, label %23, label %26

23:                                               ; preds = %17
  %24 = load i8*, i8** %6, align 8
  %25 = getelementptr inbounds i8, i8* %24, i32 1
  store i8* %25, i8** %6, align 8
  br label %17

26:                                               ; preds = %17
  %27 = load i8*, i8** %6, align 8
  %28 = load i32, i32* %7, align 4
  %29 = sext i32 %28 to i64
  %30 = getelementptr inbounds [50 x [20 x i8]], [50 x [20 x i8]]* %3, i64 0, i64 %29
  %31 = getelementptr inbounds [20 x i8], [20 x i8]* %30, i64 0, i64 0
  %32 = call i32 (i8*, i8*, ...) @__isoc99_sscanf(i8* %27, i8* getelementptr inbounds ([3 x i8], [3 x i8]* @.str, i64 0, i64 0), i8* %31) #4
  %33 = load i32, i32* %7, align 4
  %34 = sext i32 %33 to i64
  %35 = getelementptr inbounds [50 x [20 x i8]], [50 x [20 x i8]]* %3, i64 0, i64 %34
  %36 = getelementptr inbounds [20 x i8], [20 x i8]* %35, i64 0, i64 0
  %37 = call i64 @strlen(i8* %36) #5
  %38 = load i8*, i8** %6, align 8
  %39 = getelementptr inbounds i8, i8* %38, i64 %37
  store i8* %39, i8** %6, align 8
  %40 = load i32, i32* %7, align 4
  %41 = add nsw i32 %40, 1
  store i32 %41, i32* %7, align 4
  br label %12

42:                                               ; preds = %12
  store i32 1, i32* %8, align 4
  br label %43

43:                                               ; preds = %76, %42
  %44 = load i32, i32* %8, align 4
  %45 = load i32, i32* %7, align 4
  %46 = icmp slt i32 %44, %45
  br i1 %46, label %47, label %79

47:                                               ; preds = %43
  %48 = load i32, i32* %8, align 4
  %49 = sext i32 %48 to i64
  %50 = getelementptr inbounds [50 x [20 x i8]], [50 x [20 x i8]]* %3, i64 0, i64 %49
  %51 = getelementptr inbounds [20 x i8], [20 x i8]* %50, i64 0, i64 0
  %52 = call i64 @strlen(i8* %51) #5
  %53 = load i32, i32* %4, align 4
  %54 = sext i32 %53 to i64
  %55 = getelementptr inbounds [50 x [20 x i8]], [50 x [20 x i8]]* %3, i64 0, i64 %54
  %56 = getelementptr inbounds [20 x i8], [20 x i8]* %55, i64 0, i64 0
  %57 = call i64 @strlen(i8* %56) #5
  %58 = icmp ugt i64 %52, %57
  br i1 %58, label %59, label %61

59:                                               ; preds = %47
  %60 = load i32, i32* %8, align 4
  store i32 %60, i32* %4, align 4
  br label %61

61:                                               ; preds = %59, %47
  %62 = load i32, i32* %8, align 4
  %63 = sext i32 %62 to i64
  %64 = getelementptr inbounds [50 x [20 x i8]], [50 x [20 x i8]]* %3, i64 0, i64 %63
  %65 = getelementptr inbounds [20 x i8], [20 x i8]* %64, i64 0, i64 0
  %66 = call i64 @strlen(i8* %65) #5
  %67 = load i32, i32* %5, align 4
  %68 = sext i32 %67 to i64
  %69 = getelementptr inbounds [50 x [20 x i8]], [50 x [20 x i8]]* %3, i64 0, i64 %68
  %70 = getelementptr inbounds [20 x i8], [20 x i8]* %69, i64 0, i64 0
  %71 = call i64 @strlen(i8* %70) #5
  %72 = icmp ult i64 %66, %71
  br i1 %72, label %73, label %75

73:                                               ; preds = %61
  %74 = load i32, i32* %8, align 4
  store i32 %74, i32* %5, align 4
  br label %75

75:                                               ; preds = %73, %61
  br label %76

76:                                               ; preds = %75
  %77 = load i32, i32* %8, align 4
  %78 = add nsw i32 %77, 1
  store i32 %78, i32* %8, align 4
  br label %43

79:                                               ; preds = %43
  %80 = load i32, i32* %4, align 4
  %81 = sext i32 %80 to i64
  %82 = getelementptr inbounds [50 x [20 x i8]], [50 x [20 x i8]]* %3, i64 0, i64 %81
  %83 = getelementptr inbounds [20 x i8], [20 x i8]* %82, i64 0, i64 0
  %84 = call i32 @puts(i8* %83)
  %85 = load i32, i32* %5, align 4
  %86 = sext i32 %85 to i64
  %87 = getelementptr inbounds [50 x [20 x i8]], [50 x [20 x i8]]* %3, i64 0, i64 %86
  %88 = getelementptr inbounds [20 x i8], [20 x i8]* %87, i64 0, i64 0
  %89 = call i32 @puts(i8* %88)
  ret i32 0
}

declare dso_local i32 @gets(...) #1

; Function Attrs: nounwind
declare dso_local i32 @__isoc99_sscanf(i8*, i8*, ...) #2

; Function Attrs: nounwind readonly
declare dso_local i64 @strlen(i8*) #3

declare dso_local i32 @puts(i8*) #1


!llvm.module.flags = !{!0}
!llvm.ident = !{!1}

!0 = !{i32 1, !"wchar_size", i32 4}
!1 = !{!"clang version 10.0.0-4ubuntu1 "}
